target datalayout = "e-m:e-p270:32:32-p271:32:32-p272:64:64-i64:64-i128:128-f80:128-n8:16:32:64-S128"
target triple = "x86_64-pc-linux-gnu"

%struct.zskiplistNode = type { ptr, double, ptr, [0 x %struct.zskiplistLevel] }
%struct.zskiplistLevel = type { ptr, i64 }

; Function Attrs: nounwind uwtable
define dso_local ptr @zslGetElementByRankFromNode(ptr noundef %0, i32 noundef %1, i64 noundef %2) #0 {
  %4 = alloca ptr, align 8
  %5 = alloca ptr, align 8
  %6 = alloca i32, align 4
  %7 = alloca i64, align 8
  %8 = alloca ptr, align 8
  %9 = alloca i64, align 8
  %10 = alloca i32, align 4
  %11 = alloca i32, align 4
  store ptr %0, ptr %5, align 8, !tbaa !14
  store i32 %1, ptr %6, align 4, !tbaa !5
  store i64 %2, ptr %7, align 8, !tbaa !31
  call void @llvm.lifetime.start.p0(i64 8, ptr %8) #12
  call void @llvm.lifetime.start.p0(i64 8, ptr %9) #12
  store i64 0, ptr %9, align 8, !tbaa !31
  call void @llvm.lifetime.start.p0(i64 4, ptr %10) #12
  %12 = load ptr, ptr %5, align 8, !tbaa !14
  store ptr %12, ptr %8, align 8, !tbaa !14
  %13 = load i32, ptr %6, align 4, !tbaa !5
  store i32 %13, ptr %10, align 4, !tbaa !5
  br label %14

14:                                               ; preds = %65, %3
  %15 = load i32, ptr %10, align 4, !tbaa !5
  %16 = icmp sge i32 %15, 0
  br i1 %16, label %17, label %68

17:                                               ; preds = %14
  br label %18

18:                                               ; preds = %41, %17
  %19 = load ptr, ptr %8, align 8, !tbaa !14
  %20 = getelementptr inbounds nuw %struct.zskiplistNode, ptr %19, i32 0, i32 3
  %21 = load i32, ptr %10, align 4, !tbaa !5
  %22 = sext i32 %21 to i64
  %23 = getelementptr inbounds [0 x %struct.zskiplistLevel], ptr %20, i64 0, i64 %22
  %24 = getelementptr inbounds nuw %struct.zskiplistLevel, ptr %23, i32 0, i32 0
  %25 = load ptr, ptr %24, align 8, !tbaa !23
  %26 = icmp ne ptr %25, null
  br i1 %26, label %27, label %39

27:                                               ; preds = %18
  %28 = load i64, ptr %9, align 8, !tbaa !31
  %29 = load ptr, ptr %8, align 8, !tbaa !14
  %30 = getelementptr inbounds nuw %struct.zskiplistNode, ptr %29, i32 0, i32 3
  %31 = load i32, ptr %10, align 4, !tbaa !5
  %32 = sext i32 %31 to i64
  %33 = getelementptr inbounds [0 x %struct.zskiplistLevel], ptr %30, i64 0, i64 %32
  %34 = getelementptr inbounds nuw %struct.zskiplistLevel, ptr %33, i32 0, i32 1
  %35 = load i64, ptr %34, align 8, !tbaa !25
  %36 = add i64 %28, %35
  %37 = load i64, ptr %7, align 8, !tbaa !31
  %38 = icmp ule i64 %36, %37
  br label %39

39:                                               ; preds = %27, %18
  %40 = phi i1 [ false, %18 ], [ %38, %27 ]
  br i1 %40, label %41, label %58

41:                                               ; preds = %39
  %42 = load ptr, ptr %8, align 8, !tbaa !14
  %43 = getelementptr inbounds nuw %struct.zskiplistNode, ptr %42, i32 0, i32 3
  %44 = load i32, ptr %10, align 4, !tbaa !5
  %45 = sext i32 %44 to i64
  %46 = getelementptr inbounds [0 x %struct.zskiplistLevel], ptr %43, i64 0, i64 %45
  %47 = getelementptr inbounds nuw %struct.zskiplistLevel, ptr %46, i32 0, i32 1
  %48 = load i64, ptr %47, align 8, !tbaa !25
  %49 = load i64, ptr %9, align 8, !tbaa !31
  %50 = add i64 %49, %48
  store i64 %50, ptr %9, align 8, !tbaa !31
  %51 = load ptr, ptr %8, align 8, !tbaa !14
  %52 = getelementptr inbounds nuw %struct.zskiplistNode, ptr %51, i32 0, i32 3
  %53 = load i32, ptr %10, align 4, !tbaa !5
  %54 = sext i32 %53 to i64
  %55 = getelementptr inbounds [0 x %struct.zskiplistLevel], ptr %52, i64 0, i64 %54
  %56 = getelementptr inbounds nuw %struct.zskiplistLevel, ptr %55, i32 0, i32 0
  %57 = load ptr, ptr %56, align 8, !tbaa !23
  store ptr %57, ptr %8, align 8, !tbaa !14
  br label %18, !llvm.loop !58

58:                                               ; preds = %39
  %59 = load i64, ptr %9, align 8, !tbaa !31
  %60 = load i64, ptr %7, align 8, !tbaa !31
  %61 = icmp eq i64 %59, %60
  br i1 %61, label %62, label %64

62:                                               ; preds = %58
  %63 = load ptr, ptr %8, align 8, !tbaa !14
  store ptr %63, ptr %4, align 8
  store i32 1, ptr %11, align 4
  br label %69

64:                                               ; preds = %58
  br label %65

65:                                               ; preds = %64
  %66 = load i32, ptr %10, align 4, !tbaa !5
  %67 = add nsw i32 %66, -1
  store i32 %67, ptr %10, align 4, !tbaa !5
  br label %14, !llvm.loop !59

68:                                               ; preds = %14
  store ptr null, ptr %4, align 8
  store i32 1, ptr %11, align 4
  br label %69

69:                                               ; preds = %68, %62
  call void @llvm.lifetime.end.p0(i64 4, ptr %10) #12
  call void @llvm.lifetime.end.p0(i64 8, ptr %9) #12
  call void @llvm.lifetime.end.p0(i64 8, ptr %8) #12
  %70 = load ptr, ptr %4, align 8
  ret ptr %70
}