; Function Attrs: nofree norecurse nosync nounwind memory(read, inaccessiblemem: none) uwtable
define dso_local ptr @zslGetElementByRankFromNode(ptr noundef readonly captures(ret: address, provenance) %0, i32 noundef %1, i64 noundef %2) local_unnamed_addr #9 {
  %4 = icmp sgt i32 %1, -1
  br i1 %4, label %.preheader.preheader, label %._crit_edge

.preheader.preheader:                             ; preds = %3
  %5 = zext nneg i32 %1 to i64
  br label %.preheader

6:                                                ; preds = %.critedge
  %indvars.iv.next = add nsw i64 %indvars.iv, -1
  %7 = icmp sgt i64 %indvars.iv, 0
  br i1 %7, label %.preheader, label %._crit_edge, !llvm.loop !50

.preheader:                                       ; preds = %.preheader.preheader, %6
  %indvars.iv = phi i64 [ %5, %.preheader.preheader ], [ %indvars.iv.next, %6 ]
  %.01826 = phi i64 [ 0, %.preheader.preheader ], [ %.1, %6 ]
  %.01925 = phi ptr [ %0, %.preheader.preheader ], [ %.120, %6 ]
  br label %8

8:                                                ; preds = %.preheader, %12
  %.120 = phi ptr [ %11, %12 ], [ %.01925, %.preheader ]
  %.1 = phi i64 [ %15, %12 ], [ %.01826, %.preheader ]
  %9 = getelementptr inbounds nuw i8, ptr %.120, i64 24
  %10 = getelementptr inbounds nuw [0 x %struct.zskiplistLevel], ptr %9, i64 0, i64 %indvars.iv
  %11 = load ptr, ptr %10, align 8, !tbaa !20
  %.not = icmp eq ptr %11, null
  br i1 %.not, label %.critedge, label %12

12:                                               ; preds = %8
  %13 = getelementptr inbounds nuw i8, ptr %10, i64 8
  %14 = load i64, ptr %13, align 8, !tbaa !27
  %15 = add i64 %14, %.1
  %.not24 = icmp ugt i64 %15, %2
  br i1 %.not24, label %.critedge, label %8, !llvm.loop !51

.critedge:                                        ; preds = %8, %12
  %16 = icmp eq i64 %.1, %2
  br i1 %16, label %._crit_edge, label %6

._crit_edge:                                      ; preds = %.critedge, %6, %3
  %.021 = phi ptr [ null, %3 ], [ null, %6 ], [ %.120, %.critedge ]
  ret ptr %.021
}